; Function Attrs: mustprogress uwtable
define hidden noundef nonnull align 8 dereferenceable(8) ptr @_ZNK3sat10lut_finder12display_maskERSomj(ptr noundef nonnull readnone align 8 captures(none) dereferenceable(176) %0, ptr noundef nonnull returned align 8 dereferenceable(8) %1, i64 noundef %2, i32 noundef %3) local_unnamed_addr #3 align 2 {
  %.not7 = icmp eq i32 %3, 0
  br i1 %.not7, label %._crit_edge, label %.lr.ph.preheader

.lr.ph.preheader:                                 ; preds = %4
  %wide.trip.count = zext i32 %3 to i64
  br label %.lr.ph

._crit_edge:                                      ; preds = %.lr.ph, %4
  ret ptr %1

.lr.ph:                                           ; preds = %.lr.ph.preheader, %.lr.ph
  %indvars.iv = phi i64 [ 0, %.lr.ph.preheader ], [ %indvars.iv.next, %.lr.ph ]
  %5 = shl nuw i64 1, %indvars.iv
  %6 = and i64 %5, %2
  %.not = icmp eq i64 %6, 0
  %.str..str.1 = select i1 %.not, ptr @.str.1, ptr @.str
  %7 = tail call noundef nonnull align 8 dereferenceable(8) ptr @_ZSt16__ostream_insertIcSt11char_traitsIcEERSt13basic_ostreamIT_T0_ES6_PKS3_l(ptr noundef nonnull align 8 dereferenceable(8) %1, ptr noundef nonnull %.str..str.1, i64 noundef 1)
  %indvars.iv.next = add nuw nsw i64 %indvars.iv, 1
  %exitcond.not = icmp eq i64 %indvars.iv.next, %wide.trip.count
  br i1 %exitcond.not, label %._crit_edge, label %.lr.ph, !llvm.loop !96
}